target datalayout = "e-m:e-p270:32:32-p271:32:32-p272:64:64-i64:64-i128:128-f80:128-n8:16:32:64-S128"
target triple = "x86_64-pc-linux-gnu"

%"class.std::__cxx11::basic_string" = type { %"struct.std::__cxx11::basic_string<char>::_Alloc_hider", i64, %union.anon }
%"struct.std::__cxx11::basic_string<char>::_Alloc_hider" = type { ptr }
%union.anon = type { i64, [8 x i8] }
%"class.zmq::socket_base_t::inprocs_t" = type { %"class.std::multimap" }
%"class.std::multimap" = type { %"class.std::_Rb_tree" }
%"class.std::_Rb_tree" = type { %"struct.std::_Rb_tree<std::__cxx11::basic_string<char>, std::pair<const std::__cxx11::basic_string<char>, zmq::pipe_t *>, std::_Select1st<std::pair<const std::__cxx11::basic_string<char>, zmq::pipe_t *>>, std::less<std::__cxx11::basic_string<char>>>::_Rb_tree_impl" }
%"struct.std::_Rb_tree<std::__cxx11::basic_string<char>, std::pair<const std::__cxx11::basic_string<char>, zmq::pipe_t *>, std::_Select1st<std::pair<const std::__cxx11::basic_string<char>, zmq::pipe_t *>>, std::less<std::__cxx11::basic_string<char>>>::_Rb_tree_impl" = type { [8 x i8], %"struct.std::_Rb_tree_header" }
%"struct.std::_Rb_tree_header" = type { %"struct.std::_Rb_tree_node_base", i64 }
%"struct.std::_Rb_tree_node_base" = type { i32, ptr, ptr, ptr }
%"class.zmq::socket_base_t" = type <{ %"class.zmq::own_t.base", [4 x i8], %"class.zmq::array_item_t.base.49", [4 x i8], %"struct.zmq::i_poll_events", %"struct.zmq::i_pipe_events", %"class.zmq::mutex_t", %"class.std::multimap.50", %"class.zmq::socket_base_t::inprocs_t", i32, i8, i8, [2 x i8], ptr, %"class.zmq::array_t", ptr, ptr, i64, i32, i8, [3 x i8], %"class.zmq::clock_t", ptr, i64, %"class.std::__cxx11::basic_string", i8, [7 x i8], ptr, %"class.zmq::mutex_t", i8, [7 x i8] }>
%"class.zmq::own_t.base" = type <{ %"class.zmq::object_t.base", [4 x i8], %"struct.zmq::options_t", i8, [7 x i8], %"class.zmq::atomic_counter_t", i64, ptr, %"class.std::set.42", i32 }>
%"class.zmq::object_t.base" = type <{ ptr, ptr, i32 }>
%"struct.zmq::options_t" = type { i32, i32, i64, i8, [256 x i8], i32, i32, i32, i32, i32, i32, i32, i32, i8, %"struct.zmq::atomic_value_t", i32, i32, i32, i32, i32, i32, i64, i32, i32, i8, i32, i8, i8, i8, i8, i8, %"class.std::__cxx11::basic_string", %"class.std::__cxx11::basic_string", %"class.std::__cxx11::basic_string", i32, i32, i32, i32, %"class.std::vector", %"class.std::set", %"class.std::set", %"class.std::set.25", i32, i32, %"class.std::__cxx11::basic_string", %"class.std::__cxx11::basic_string", %"class.std::__cxx11::basic_string", [32 x i8], [32 x i8], [32 x i8], %"class.std::__cxx11::basic_string", %"class.std::__cxx11::basic_string", i32, i32, i8, i32, i8, i32, i8, i16, i32, i32, i32, %"class.std::__cxx11::basic_string", i8, i8, i8, i32, i32, i8, i32, %"class.std::map", i32, %"class.std::__cxx11::basic_string", %"class.std::__cxx11::basic_string", %"class.std::__cxx11::basic_string", %"class.std::__cxx11::basic_string", i8, %"class.std::vector.35", i8, %"class.std::vector.35", i8, %"class.std::vector.35", i8, i32, i8, i32, i32, i32, i32, i32, i8, i32 }
%"struct.zmq::atomic_value_t" = type { %"struct.std::atomic" }
%"struct.std::atomic" = type { %"struct.std::__atomic_base" }
%"struct.std::__atomic_base" = type { i32 }
%"class.std::vector" = type { %"struct.std::_Vector_base" }
%"struct.std::_Vector_base" = type { %"struct.std::_Vector_base<zmq::tcp_address_mask_t, std::allocator<zmq::tcp_address_mask_t>>::_Vector_impl" }
%"struct.std::_Vector_base<zmq::tcp_address_mask_t, std::allocator<zmq::tcp_address_mask_t>>::_Vector_impl" = type { %"struct.std::_Vector_base<zmq::tcp_address_mask_t, std::allocator<zmq::tcp_address_mask_t>>::_Vector_impl_data" }
%"struct.std::_Vector_base<zmq::tcp_address_mask_t, std::allocator<zmq::tcp_address_mask_t>>::_Vector_impl_data" = type { ptr, ptr, ptr }
%"class.std::set" = type { %"class.std::_Rb_tree.20" }
%"class.std::_Rb_tree.20" = type { %"struct.std::_Rb_tree<unsigned int, unsigned int, std::_Identity<unsigned int>, std::less<unsigned int>>::_Rb_tree_impl" }
%"struct.std::_Rb_tree<unsigned int, unsigned int, std::_Identity<unsigned int>, std::less<unsigned int>>::_Rb_tree_impl" = type { [8 x i8], %"struct.std::_Rb_tree_header" }
%"class.std::set.25" = type { %"class.std::_Rb_tree.26" }
%"class.std::_Rb_tree.26" = type { %"struct.std::_Rb_tree<int, int, std::_Identity<int>, std::less<int>>::_Rb_tree_impl" }
%"struct.std::_Rb_tree<int, int, std::_Identity<int>, std::less<int>>::_Rb_tree_impl" = type { [8 x i8], %"struct.std::_Rb_tree_header" }
%"class.std::map" = type { %"class.std::_Rb_tree.31" }
%"class.std::_Rb_tree.31" = type { %"struct.std::_Rb_tree<std::__cxx11::basic_string<char>, std::pair<const std::__cxx11::basic_string<char>, std::__cxx11::basic_string<char>>, std::_Select1st<std::pair<const std::__cxx11::basic_string<char>, std::__cxx11::basic_string<char>>>, std::less<std::__cxx11::basic_string<char>>>::_Rb_tree_impl" }
%"struct.std::_Rb_tree<std::__cxx11::basic_string<char>, std::pair<const std::__cxx11::basic_string<char>, std::__cxx11::basic_string<char>>, std::_Select1st<std::pair<const std::__cxx11::basic_string<char>, std::__cxx11::basic_string<char>>>, std::less<std::__cxx11::basic_string<char>>>::_Rb_tree_impl" = type { [8 x i8], %"struct.std::_Rb_tree_header" }
%"class.std::vector.35" = type { %"struct.std::_Vector_base.36" }
%"struct.std::_Vector_base.36" = type { %"struct.std::_Vector_base<unsigned char, std::allocator<unsigned char>>::_Vector_impl" }
%"struct.std::_Vector_base<unsigned char, std::allocator<unsigned char>>::_Vector_impl" = type { %"struct.std::_Vector_base<unsigned char, std::allocator<unsigned char>>::_Vector_impl_data" }
%"struct.std::_Vector_base<unsigned char, std::allocator<unsigned char>>::_Vector_impl_data" = type { ptr, ptr, ptr }
%"class.zmq::atomic_counter_t" = type { %"struct.std::atomic.40", [4 x i8] }
%"struct.std::atomic.40" = type { %"struct.std::__atomic_base.41" }
%"struct.std::__atomic_base.41" = type { i32 }
%"class.std::set.42" = type { %"class.std::_Rb_tree.43" }
%"class.std::_Rb_tree.43" = type { %"struct.std::_Rb_tree<zmq::own_t *, zmq::own_t *, std::_Identity<zmq::own_t *>, std::less<zmq::own_t *>>::_Rb_tree_impl" }
%"struct.std::_Rb_tree<zmq::own_t *, zmq::own_t *, std::_Identity<zmq::own_t *>, std::less<zmq::own_t *>>::_Rb_tree_impl" = type { [8 x i8], %"struct.std::_Rb_tree_header" }
%"class.zmq::array_item_t.base.49" = type <{ ptr, i32 }>
%"struct.zmq::i_poll_events" = type { ptr }
%"struct.zmq::i_pipe_events" = type { ptr }
%"class.std::multimap.50" = type { %"class.std::_Rb_tree.51" }
%"class.std::_Rb_tree.51" = type { %"struct.std::_Rb_tree<std::__cxx11::basic_string<char>, std::pair<const std::__cxx11::basic_string<char>, std::pair<zmq::own_t *, zmq::pipe_t *>>, std::_Select1st<std::pair<const std::__cxx11::basic_string<char>, std::pair<zmq::own_t *, zmq::pipe_t *>>>, std::less<std::__cxx11::basic_string<char>>>::_Rb_tree_impl" }
%"struct.std::_Rb_tree<std::__cxx11::basic_string<char>, std::pair<const std::__cxx11::basic_string<char>, std::pair<zmq::own_t *, zmq::pipe_t *>>, std::_Select1st<std::pair<const std::__cxx11::basic_string<char>, std::pair<zmq::own_t *, zmq::pipe_t *>>>, std::less<std::__cxx11::basic_string<char>>>::_Rb_tree_impl" = type { [8 x i8], %"struct.std::_Rb_tree_header" }
%"class.zmq::array_t" = type { %"class.std::vector.55" }
%"class.std::vector.55" = type { %"struct.std::_Vector_base.56" }
%"struct.std::_Vector_base.56" = type { %"struct.std::_Vector_base<zmq::pipe_t *, std::allocator<zmq::pipe_t *>>::_Vector_impl" }
%"struct.std::_Vector_base<zmq::pipe_t *, std::allocator<zmq::pipe_t *>>::_Vector_impl" = type { %"struct.std::_Vector_base<zmq::pipe_t *, std::allocator<zmq::pipe_t *>>::_Vector_impl_data" }
%"struct.std::_Vector_base<zmq::pipe_t *, std::allocator<zmq::pipe_t *>>::_Vector_impl_data" = type { ptr, ptr, ptr }
%"class.zmq::clock_t" = type { i64, i64 }
%"class.zmq::mutex_t" = type <{ %union.pthread_mutex_t, %union.pthread_mutexattr_t, [4 x i8] }>
%union.pthread_mutex_t = type { %struct.__pthread_mutex_s }
%struct.__pthread_mutex_s = type { i32, i32, i32, i32, i32, i16, i16, %struct.__pthread_internal_list }
%struct.__pthread_internal_list = type { ptr, ptr }
%union.pthread_mutexattr_t = type { i32 }
%"class.zmq::own_t" = type <{ %"class.zmq::object_t.base", [4 x i8], %"struct.zmq::options_t", i8, [7 x i8], %"class.zmq::atomic_counter_t", i64, ptr, %"class.std::set.42", i32, [4 x i8] }>

@stderr = external global ptr, align 8
@.str.1 = private unnamed_addr constant [111 x i8] c"generated/home/dtcxzyw/WorkSpace/Projects/compilers/llvm-opt-benchmark/bench/libzmq/libzmq/src/socket_base.cpp\00", align 1
@.str.3 = private unnamed_addr constant [30 x i8] c"Assertion failed: %s (%s:%d)\0A\00", align 1
@.str.14 = private unnamed_addr constant [24 x i8] c"options.recv_routing_id\00", align 1

; Function Attrs: mustprogress uwtable
define void @_ZN3zmq13socket_base_t13extract_flagsEPKNS_5msg_tE(ptr noundef nonnull align 8 dereferenceable(1825) %0, ptr noundef %1) #0 align 2 {
  %3 = alloca ptr, align 8
  %4 = alloca ptr, align 8
  store ptr %0, ptr %3, align 8, !tbaa !42
  store ptr %1, ptr %4, align 8, !tbaa !250
  %5 = load ptr, ptr %3, align 8
  %6 = load ptr, ptr %4, align 8, !tbaa !250
  %7 = call noundef zeroext i8 @_ZNK3zmq5msg_t5flagsEv(ptr noundef nonnull align 8 dereferenceable(64) %6)
  %8 = zext i8 %7 to i32
  %9 = and i32 %8, 64
  %10 = sext i32 %9 to i64
  %11 = call i64 @llvm.expect.i64(i64 %10, i64 0)
  %12 = icmp ne i64 %11, 0
  br i1 %12, label %13, label %30

13:                                               ; preds = %2
  br label %14

14:                                               ; preds = %13
  %15 = getelementptr inbounds nuw %"class.zmq::own_t", ptr %5, i32 0, i32 2
  %16 = getelementptr inbounds nuw %"struct.zmq::options_t", ptr %15, i32 0, i32 28
  %17 = load i8, ptr %16, align 2, !tbaa !213, !range !112, !noundef !113
  %18 = trunc i8 %17 to i1
  %19 = xor i1 %18, true
  %20 = zext i1 %19 to i64
  %21 = call i64 @llvm.expect.i64(i64 %20, i64 0)
  %22 = icmp ne i64 %21, 0
  br i1 %22, label %23, label %28

23:                                               ; preds = %14
  %24 = load ptr, ptr @stderr, align 8, !tbaa !115
  %25 = call i32 (ptr, ptr, ...) @fprintf(ptr noundef %24, ptr noundef @.str.3, ptr noundef @.str.14, ptr noundef @.str.1, i32 noundef 1759) #21
  %26 = load ptr, ptr @stderr, align 8, !tbaa !115
  %27 = call i32 @fflush(ptr noundef %26)
  call void @_ZN3zmq9zmq_abortEPKc(ptr noundef @.str.14)
  br label %28

28:                                               ; preds = %23, %14
  br label %29

29:                                               ; preds = %28
  br label %30

30:                                               ; preds = %29, %2
  %31 = load ptr, ptr %4, align 8, !tbaa !250
  %32 = call noundef zeroext i8 @_ZNK3zmq5msg_t5flagsEv(ptr noundef nonnull align 8 dereferenceable(64) %31)
  %33 = zext i8 %32 to i32
  %34 = and i32 %33, 1
  %35 = icmp ne i32 %34, 0
  %36 = getelementptr inbounds nuw %"class.zmq::socket_base_t", ptr %5, i32 0, i32 19
  %37 = zext i1 %35 to i8
  store i8 %37, ptr %36, align 4, !tbaa !127
  ret void
}