; Function Attrs: mustprogress uwtable
define void @_ZN3zmq13socket_base_t13extract_flagsEPKNS_5msg_tE(ptr noundef nonnull align 8 captures(none) dereferenceable(1825) initializes((1692, 1693)) %0, ptr noundef nonnull %1) local_unnamed_addr #0 align 2 {
  %3 = tail call noundef zeroext i8 @_ZNK3zmq5msg_t5flagsEv(ptr noundef nonnull align 8 dereferenceable(64) %1)
  %4 = and i8 %3, 64
  %.not = icmp eq i8 %4, 0
  br i1 %.not, label %14, label %5, !prof !116

5:                                                ; preds = %2
  %6 = getelementptr inbounds nuw i8, ptr %0, i64 394
  %7 = load i8, ptr %6, align 2, !tbaa !194, !range !97, !noundef !98
  %8 = trunc nuw i8 %7 to i1
  br i1 %8, label %14, label %9, !prof !116

9:                                                ; preds = %5
  %10 = load ptr, ptr @stderr, align 8, !tbaa !100
  %11 = tail call i32 (ptr, ptr, ...) @fprintf(ptr noundef %10, ptr noundef nonnull @.str.3, ptr noundef nonnull @.str.14, ptr noundef nonnull @.str.1, i32 noundef 1759) #42
  %12 = load ptr, ptr @stderr, align 8, !tbaa !100
  %13 = tail call i32 @fflush(ptr noundef %12)
  tail call void @_ZN3zmq9zmq_abortEPKc(ptr noundef nonnull @.str.14)
  br label %14

14:                                               ; preds = %9, %5, %2
  %15 = tail call noundef zeroext i8 @_ZNK3zmq5msg_t5flagsEv(ptr noundef nonnull align 8 dereferenceable(64) %1)
  %16 = and i8 %15, 1
  %17 = getelementptr inbounds nuw i8, ptr %0, i64 1692
  store i8 %16, ptr %17, align 4, !tbaa !142
  ret void
}